target datalayout = "e-m:e-p270:32:32-p271:32:32-p272:64:64-i64:64-i128:128-f80:128-n8:16:32:64-S128"
target triple = "x86_64-pc-linux-gnu"

%struct.AVIOContext = type { ptr, ptr, i32, ptr, ptr, ptr, ptr, ptr, ptr, i64, i32, i32, i32, i32, i32, i64, ptr, ptr, ptr, ptr, i32, i32, ptr, ptr, ptr, i32, ptr, i64, i64 }
%struct.DynBuffer = type { i32, i32, i32, ptr, i32, [1 x i8] }

; Function Attrs: nounwind uwtable
define void @avio_flush(ptr noundef %0) #0 {
  %2 = alloca ptr, align 8
  %3 = alloca i32, align 4
  store ptr %0, ptr %2, align 8, !tbaa !14
  call void @llvm.lifetime.start.p0(i64 4, ptr %3) #12
  %4 = load ptr, ptr %2, align 8, !tbaa !14
  %5 = getelementptr inbounds nuw %struct.AVIOContext, ptr %4, i32 0, i32 12
  %6 = load i32, ptr %5, align 8, !tbaa !46
  %7 = icmp ne i32 %6, 0
  br i1 %7, label %8, label %32

8:                                                ; preds = %1
  %9 = load ptr, ptr %2, align 8, !tbaa !14
  %10 = getelementptr inbounds nuw %struct.AVIOContext, ptr %9, i32 0, i32 3
  %11 = load ptr, ptr %10, align 8, !tbaa !23
  %12 = load ptr, ptr %2, align 8, !tbaa !14
  %13 = getelementptr inbounds nuw %struct.AVIOContext, ptr %12, i32 0, i32 26
  %14 = load ptr, ptr %13, align 8, !tbaa !24
  %15 = ptrtoint ptr %11 to i64
  %16 = ptrtoint ptr %14 to i64
  %17 = sub i64 %15, %16
  %18 = icmp sgt i64 0, %17
  br i1 %18, label %19, label %29

19:                                               ; preds = %8
  %20 = load ptr, ptr %2, align 8, !tbaa !14
  %21 = getelementptr inbounds nuw %struct.AVIOContext, ptr %20, i32 0, i32 3
  %22 = load ptr, ptr %21, align 8, !tbaa !23
  %23 = load ptr, ptr %2, align 8, !tbaa !14
  %24 = getelementptr inbounds nuw %struct.AVIOContext, ptr %23, i32 0, i32 26
  %25 = load ptr, ptr %24, align 8, !tbaa !24
  %26 = ptrtoint ptr %22 to i64
  %27 = ptrtoint ptr %25 to i64
  %28 = sub i64 %26, %27
  br label %30

29:                                               ; preds = %8
  br label %30

30:                                               ; preds = %29, %19
  %31 = phi i64 [ %28, %19 ], [ 0, %29 ]
  br label %33

32:                                               ; preds = %1
  br label %33

33:                                               ; preds = %32, %30
  %34 = phi i64 [ %31, %30 ], [ 0, %32 ]
  %35 = trunc i64 %34 to i32
  store i32 %35, ptr %3, align 4, !tbaa !11
  %36 = load ptr, ptr %2, align 8, !tbaa !14
  call void @flush_buffer(ptr noundef %36)
  %37 = load i32, ptr %3, align 4, !tbaa !11
  %38 = icmp ne i32 %37, 0
  br i1 %38, label %39, label %44

39:                                               ; preds = %33
  %40 = load ptr, ptr %2, align 8, !tbaa !14
  %41 = load i32, ptr %3, align 4, !tbaa !11
  %42 = sext i32 %41 to i64
  %43 = call i64 @avio_seek(ptr noundef %40, i64 noundef %42, i32 noundef 1)
  br label %44

44:                                               ; preds = %39, %33
  call void @llvm.lifetime.end.p0(i64 4, ptr %3) #12
  ret void
}

; Function Attrs: nounwind uwtable
define i32 @avio_get_dyn_buf(ptr noundef %0, ptr noundef %1) #0 {
  %3 = alloca i32, align 4
  %4 = alloca ptr, align 8
  %5 = alloca ptr, align 8
  %6 = alloca ptr, align 8
  %7 = alloca i32, align 4
  store ptr %0, ptr %4, align 8, !tbaa !14
  store ptr %1, ptr %5, align 8, !tbaa !70
  call void @llvm.lifetime.start.p0(i64 8, ptr %6) #12
  %8 = load ptr, ptr %4, align 8, !tbaa !14
  %9 = icmp ne ptr %8, null
  br i1 %9, label %12, label %10

10:                                               ; preds = %2
  %11 = load ptr, ptr %5, align 8, !tbaa !70
  store ptr null, ptr %11, align 8, !tbaa !9
  store i32 0, ptr %3, align 4
  store i32 1, ptr %7, align 4
  br label %63

12:                                               ; preds = %2
  %13 = load ptr, ptr %4, align 8, !tbaa !14
  %14 = getelementptr inbounds nuw %struct.AVIOContext, ptr %13, i32 0, i32 5
  %15 = load ptr, ptr %14, align 8, !tbaa !25
  store ptr %15, ptr %6, align 8, !tbaa !99
  %16 = load ptr, ptr %4, align 8, !tbaa !14
  %17 = getelementptr inbounds nuw %struct.AVIOContext, ptr %16, i32 0, i32 11
  %18 = load i32, ptr %17, align 4, !tbaa !32
  %19 = icmp ne i32 %18, 0
  br i1 %19, label %54, label %20

20:                                               ; preds = %12
  %21 = load ptr, ptr %6, align 8, !tbaa !99
  %22 = getelementptr inbounds nuw %struct.DynBuffer, ptr %21, i32 0, i32 1
  %23 = load i32, ptr %22, align 4, !tbaa !103
  %24 = icmp ne i32 %23, 0
  br i1 %24, label %54, label %25

25:                                               ; preds = %20
  %26 = load ptr, ptr %6, align 8, !tbaa !99
  %27 = getelementptr inbounds nuw %struct.DynBuffer, ptr %26, i32 0, i32 5
  %28 = getelementptr inbounds [1 x i8], ptr %27, i64 0, i64 0
  %29 = load ptr, ptr %5, align 8, !tbaa !70
  store ptr %28, ptr %29, align 8, !tbaa !9
  %30 = load ptr, ptr %4, align 8, !tbaa !14
  %31 = getelementptr inbounds nuw %struct.AVIOContext, ptr %30, i32 0, i32 3
  %32 = load ptr, ptr %31, align 8, !tbaa !23
  %33 = load ptr, ptr %4, align 8, !tbaa !14
  %34 = getelementptr inbounds nuw %struct.AVIOContext, ptr %33, i32 0, i32 26
  %35 = load ptr, ptr %34, align 8, !tbaa !24
  %36 = icmp ugt ptr %32, %35
  br i1 %36, label %37, label %41

37:                                               ; preds = %25
  %38 = load ptr, ptr %4, align 8, !tbaa !14
  %39 = getelementptr inbounds nuw %struct.AVIOContext, ptr %38, i32 0, i32 3
  %40 = load ptr, ptr %39, align 8, !tbaa !23
  br label %45

41:                                               ; preds = %25
  %42 = load ptr, ptr %4, align 8, !tbaa !14
  %43 = getelementptr inbounds nuw %struct.AVIOContext, ptr %42, i32 0, i32 26
  %44 = load ptr, ptr %43, align 8, !tbaa !24
  br label %45

45:                                               ; preds = %41, %37
  %46 = phi ptr [ %40, %37 ], [ %44, %41 ]
  %47 = load ptr, ptr %4, align 8, !tbaa !14
  %48 = getelementptr inbounds nuw %struct.AVIOContext, ptr %47, i32 0, i32 1
  %49 = load ptr, ptr %48, align 8, !tbaa !16
  %50 = ptrtoint ptr %46 to i64
  %51 = ptrtoint ptr %49 to i64
  %52 = sub i64 %50, %51
  %53 = trunc i64 %52 to i32
  store i32 %53, ptr %3, align 4
  store i32 1, ptr %7, align 4
  br label %63

54:                                               ; preds = %20, %12
  %55 = load ptr, ptr %4, align 8, !tbaa !14
  call void @avio_flush(ptr noundef %55)
  %56 = load ptr, ptr %6, align 8, !tbaa !99
  %57 = getelementptr inbounds nuw %struct.DynBuffer, ptr %56, i32 0, i32 3
  %58 = load ptr, ptr %57, align 8, !tbaa !104
  %59 = load ptr, ptr %5, align 8, !tbaa !70
  store ptr %58, ptr %59, align 8, !tbaa !9
  %60 = load ptr, ptr %6, align 8, !tbaa !99
  %61 = getelementptr inbounds nuw %struct.DynBuffer, ptr %60, i32 0, i32 1
  %62 = load i32, ptr %61, align 4, !tbaa !103
  store i32 %62, ptr %3, align 4
  store i32 1, ptr %7, align 4
  br label %63

63:                                               ; preds = %54, %45, %10
  call void @llvm.lifetime.end.p0(i64 8, ptr %6) #12
  %64 = load i32, ptr %3, align 4
  ret i32 %64
}