; Function Attrs: nounwind uwtable
define i32 @avio_get_dyn_buf(ptr noundef %0, ptr noundef writeonly captures(none) initializes((0, 8)) %1) local_unnamed_addr #3 {
  %.not = icmp eq ptr %0, null
  br i1 %.not, label %3, label %4

3:                                                ; preds = %2
  store ptr null, ptr %1, align 8, !tbaa !54
  br label %46

4:                                                ; preds = %2
  %5 = getelementptr inbounds nuw i8, ptr %0, i64 40
  %6 = load ptr, ptr %5, align 8, !tbaa !18
  %7 = getelementptr inbounds nuw i8, ptr %0, i64 84
  %8 = load i32, ptr %7, align 4, !tbaa !34
  %.not19 = icmp eq i32 %8, 0
  br i1 %.not19, label %9, label %25

9:                                                ; preds = %4
  %10 = getelementptr inbounds nuw i8, ptr %6, i64 4
  %11 = load i32, ptr %10, align 4, !tbaa !81
  %.not20 = icmp eq i32 %11, 0
  br i1 %.not20, label %12, label %25

12:                                               ; preds = %9
  %13 = getelementptr inbounds nuw i8, ptr %6, i64 28
  store ptr %13, ptr %1, align 8, !tbaa !54
  %14 = getelementptr inbounds nuw i8, ptr %0, i64 24
  %15 = load ptr, ptr %14, align 8, !tbaa !16
  %16 = getelementptr inbounds nuw i8, ptr %0, i64 184
  %17 = load ptr, ptr %16, align 8, !tbaa !17
  %18 = icmp ugt ptr %15, %17
  %. = select i1 %18, ptr %15, ptr %17
  %19 = getelementptr inbounds nuw i8, ptr %0, i64 8
  %20 = load ptr, ptr %19, align 8, !tbaa !4
  %21 = ptrtoint ptr %. to i64
  %22 = ptrtoint ptr %20 to i64
  %23 = sub i64 %21, %22
  %24 = trunc i64 %23 to i32
  br label %46

25:                                               ; preds = %9, %4
  %26 = getelementptr inbounds nuw i8, ptr %0, i64 88
  %27 = load i32, ptr %26, align 8, !tbaa !20
  %.not.i = icmp eq i32 %27, 0
  br i1 %.not.i, label %.thread.i, label %28

28:                                               ; preds = %25
  %29 = getelementptr inbounds nuw i8, ptr %0, i64 24
  %30 = load ptr, ptr %29, align 8, !tbaa !16
  %31 = getelementptr inbounds nuw i8, ptr %0, i64 184
  %32 = load ptr, ptr %31, align 8, !tbaa !17
  %33 = ptrtoint ptr %30 to i64
  %34 = ptrtoint ptr %32 to i64
  %35 = sub i64 %33, %34
  %36 = icmp slt i64 %35, 0
  br i1 %36, label %37, label %.thread.i

.thread.i:                                        ; preds = %28, %25
  tail call fastcc void @flush_buffer(ptr noundef nonnull %0)
  br label %avio_flush.exit

37:                                               ; preds = %28
  tail call fastcc void @flush_buffer(ptr noundef nonnull %0)
  %38 = and i64 %35, 4294967295
  %.not9.i = icmp eq i64 %38, 0
  br i1 %.not9.i, label %avio_flush.exit, label %39

39:                                               ; preds = %37
  %sext.i = shl i64 %35, 32
  %40 = ashr exact i64 %sext.i, 32
  %41 = tail call i64 @avio_seek(ptr noundef nonnull %0, i64 noundef %40, i32 noundef 1)
  br label %avio_flush.exit

avio_flush.exit:                                  ; preds = %.thread.i, %37, %39
  %42 = getelementptr inbounds nuw i8, ptr %6, i64 16
  %43 = load ptr, ptr %42, align 8, !tbaa !82
  store ptr %43, ptr %1, align 8, !tbaa !54
  %44 = getelementptr inbounds nuw i8, ptr %6, i64 4
  %45 = load i32, ptr %44, align 4, !tbaa !81
  br label %46

46:                                               ; preds = %avio_flush.exit, %12, %3
  %.0 = phi i32 [ %45, %avio_flush.exit ], [ %24, %12 ], [ 0, %3 ]
  ret i32 %.0
}